target datalayout = "e-m:e-p270:32:32-p271:32:32-p272:64:64-i64:64-i128:128-f80:128-n8:16:32:64-S128"
target triple = "x86_64-pc-linux-gnu"

%struct.prov_siv_ctx_st = type { i32, i8, i64, i64, %struct.siv128_context, ptr, ptr, ptr, ptr }
%struct.siv128_context = type { %union.siv_block_u, %union.siv_block_u, ptr, ptr, ptr, i32, i32 }
%union.siv_block_u = type { [2 x i64] }
%struct.ossl_param_st = type { ptr, i32, ptr, i64, i64 }

@.str = private unnamed_addr constant [62 x i8] c"../openssl/providers/implementations/ciphers/cipher_aes_siv.c\00", align 1
@.str.1 = private unnamed_addr constant [4 x i8] c"tag\00", align 1
@__func__.aes_siv_get_ctx_params = private unnamed_addr constant [23 x i8] c"aes_siv_get_ctx_params\00", align 1
@.str.2 = private unnamed_addr constant [7 x i8] c"taglen\00", align 1
@.str.3 = private unnamed_addr constant [7 x i8] c"keylen\00", align 1

; Function Attrs: nounwind uwtable
define internal i32 @aes_siv_get_ctx_params(ptr noundef %0, ptr noundef %1) #0 {
  %3 = alloca i32, align 4
  %4 = alloca ptr, align 8
  %5 = alloca ptr, align 8
  %6 = alloca ptr, align 8
  %7 = alloca ptr, align 8
  %8 = alloca ptr, align 8
  %9 = alloca i32, align 4
  store ptr %0, ptr %4, align 8, !tbaa !3
  store ptr %1, ptr %5, align 8, !tbaa !26
  call void @llvm.lifetime.start.p0(i64 8, ptr %6) #4
  %10 = load ptr, ptr %4, align 8, !tbaa !3
  store ptr %10, ptr %6, align 8, !tbaa !7
  call void @llvm.lifetime.start.p0(i64 8, ptr %7) #4
  %11 = load ptr, ptr %6, align 8, !tbaa !7
  %12 = getelementptr inbounds nuw %struct.prov_siv_ctx_st, ptr %11, i32 0, i32 4
  store ptr %12, ptr %7, align 8, !tbaa !31
  call void @llvm.lifetime.start.p0(i64 8, ptr %8) #4
  %13 = load ptr, ptr %5, align 8, !tbaa !26
  %14 = call ptr @OSSL_PARAM_locate(ptr noundef %13, ptr noundef @.str.1)
  store ptr %14, ptr %8, align 8, !tbaa !26
  %15 = load ptr, ptr %8, align 8, !tbaa !26
  %16 = icmp ne ptr %15, null
  br i1 %16, label %17, label %48

17:                                               ; preds = %2
  %18 = load ptr, ptr %8, align 8, !tbaa !26
  %19 = getelementptr inbounds nuw %struct.ossl_param_st, ptr %18, i32 0, i32 1
  %20 = load i32, ptr %19, align 8, !tbaa !33
  %21 = icmp eq i32 %20, 5
  br i1 %21, label %22, label %48

22:                                               ; preds = %17
  %23 = load ptr, ptr %6, align 8, !tbaa !7
  %24 = getelementptr inbounds nuw %struct.prov_siv_ctx_st, ptr %23, i32 0, i32 1
  %25 = load i8, ptr %24, align 4
  %26 = and i8 %25, 1
  %27 = zext i8 %26 to i32
  %28 = icmp ne i32 %27, 0
  br i1 %28, label %29, label %46

29:                                               ; preds = %22
  %30 = load ptr, ptr %8, align 8, !tbaa !26
  %31 = getelementptr inbounds nuw %struct.ossl_param_st, ptr %30, i32 0, i32 3
  %32 = load i64, ptr %31, align 8, !tbaa !35
  %33 = load ptr, ptr %6, align 8, !tbaa !7
  %34 = getelementptr inbounds nuw %struct.prov_siv_ctx_st, ptr %33, i32 0, i32 3
  %35 = load i64, ptr %34, align 8, !tbaa !36
  %36 = icmp ne i64 %32, %35
  br i1 %36, label %46, label %37

37:                                               ; preds = %29
  %38 = load ptr, ptr %8, align 8, !tbaa !26
  %39 = load ptr, ptr %7, align 8, !tbaa !31
  %40 = getelementptr inbounds nuw %struct.siv128_context, ptr %39, i32 0, i32 1
  %41 = load ptr, ptr %6, align 8, !tbaa !7
  %42 = getelementptr inbounds nuw %struct.prov_siv_ctx_st, ptr %41, i32 0, i32 3
  %43 = load i64, ptr %42, align 8, !tbaa !36
  %44 = call i32 @OSSL_PARAM_set_octet_string(ptr noundef %38, ptr noundef %40, i64 noundef %43)
  %45 = icmp ne i32 %44, 0
  br i1 %45, label %47, label %46

46:                                               ; preds = %37, %29, %22
  call void @ERR_new()
  call void @ERR_set_debug(ptr noundef @.str, i32 noundef 170, ptr noundef @__func__.aes_siv_get_ctx_params)
  call void (i32, i32, ptr, ...) @ERR_set_error(i32 noundef 57, i32 noundef 104, ptr noundef null)
  store i32 0, ptr %3, align 4
  store i32 1, ptr %9, align 4
  br label %75

47:                                               ; preds = %37
  br label %48

48:                                               ; preds = %47, %17, %2
  %49 = load ptr, ptr %5, align 8, !tbaa !26
  %50 = call ptr @OSSL_PARAM_locate(ptr noundef %49, ptr noundef @.str.2)
  store ptr %50, ptr %8, align 8, !tbaa !26
  %51 = load ptr, ptr %8, align 8, !tbaa !26
  %52 = icmp ne ptr %51, null
  br i1 %52, label %53, label %61

53:                                               ; preds = %48
  %54 = load ptr, ptr %8, align 8, !tbaa !26
  %55 = load ptr, ptr %6, align 8, !tbaa !7
  %56 = getelementptr inbounds nuw %struct.prov_siv_ctx_st, ptr %55, i32 0, i32 3
  %57 = load i64, ptr %56, align 8, !tbaa !36
  %58 = call i32 @OSSL_PARAM_set_size_t(ptr noundef %54, i64 noundef %57)
  %59 = icmp ne i32 %58, 0
  br i1 %59, label %61, label %60

60:                                               ; preds = %53
  call void @ERR_new()
  call void @ERR_set_debug(ptr noundef @.str, i32 noundef 176, ptr noundef @__func__.aes_siv_get_ctx_params)
  call void (i32, i32, ptr, ...) @ERR_set_error(i32 noundef 57, i32 noundef 104, ptr noundef null)
  store i32 0, ptr %3, align 4
  store i32 1, ptr %9, align 4
  br label %75

61:                                               ; preds = %53, %48
  %62 = load ptr, ptr %5, align 8, !tbaa !26
  %63 = call ptr @OSSL_PARAM_locate(ptr noundef %62, ptr noundef @.str.3)
  store ptr %63, ptr %8, align 8, !tbaa !26
  %64 = load ptr, ptr %8, align 8, !tbaa !26
  %65 = icmp ne ptr %64, null
  br i1 %65, label %66, label %74

66:                                               ; preds = %61
  %67 = load ptr, ptr %8, align 8, !tbaa !26
  %68 = load ptr, ptr %6, align 8, !tbaa !7
  %69 = getelementptr inbounds nuw %struct.prov_siv_ctx_st, ptr %68, i32 0, i32 2
  %70 = load i64, ptr %69, align 8, !tbaa !37
  %71 = call i32 @OSSL_PARAM_set_size_t(ptr noundef %67, i64 noundef %70)
  %72 = icmp ne i32 %71, 0
  br i1 %72, label %74, label %73

73:                                               ; preds = %66
  call void @ERR_new()
  call void @ERR_set_debug(ptr noundef @.str, i32 noundef 181, ptr noundef @__func__.aes_siv_get_ctx_params)
  call void (i32, i32, ptr, ...) @ERR_set_error(i32 noundef 57, i32 noundef 104, ptr noundef null)
  store i32 0, ptr %3, align 4
  store i32 1, ptr %9, align 4
  br label %75

74:                                               ; preds = %66, %61
  store i32 1, ptr %3, align 4
  store i32 1, ptr %9, align 4
  br label %75

75:                                               ; preds = %74, %73, %60, %46
  call void @llvm.lifetime.end.p0(i64 8, ptr %8) #4
  call void @llvm.lifetime.end.p0(i64 8, ptr %7) #4
  call void @llvm.lifetime.end.p0(i64 8, ptr %6) #4
  %76 = load i32, ptr %3, align 4
  ret i32 %76
}