; Function Attrs: nounwind uwtable
define internal range(i32 0, 2) i32 @aes_siv_get_ctx_params(ptr noundef %0, ptr noundef %1) #0 {
  %3 = tail call ptr @OSSL_PARAM_locate(ptr noundef %1, ptr noundef nonnull @.str.1) #4
  %.not = icmp eq ptr %3, null
  br i1 %.not, label %20, label %4

4:                                                ; preds = %2
  %5 = getelementptr inbounds nuw i8, ptr %3, i64 8
  %6 = load i32, ptr %5, align 8, !tbaa !27
  %7 = icmp eq i32 %6, 5
  br i1 %7, label %8, label %20

8:                                                ; preds = %4
  %9 = getelementptr inbounds nuw i8, ptr %0, i64 4
  %10 = load i8, ptr %9, align 4
  %11 = and i8 %10, 1
  %.not23 = icmp eq i8 %11, 0
  br i1 %.not23, label %.sink.split, label %12

12:                                               ; preds = %8
  %13 = getelementptr inbounds nuw i8, ptr %3, i64 24
  %14 = load i64, ptr %13, align 8, !tbaa !30
  %15 = getelementptr inbounds nuw i8, ptr %0, i64 16
  %16 = load i64, ptr %15, align 8, !tbaa !3
  %.not24 = icmp eq i64 %14, %16
  br i1 %.not24, label %17, label %.sink.split

17:                                               ; preds = %12
  %18 = getelementptr inbounds nuw i8, ptr %0, i64 40
  %19 = tail call i32 @OSSL_PARAM_set_octet_string(ptr noundef nonnull %3, ptr noundef nonnull %18, i64 noundef %14) #4
  %.not25 = icmp eq i32 %19, 0
  br i1 %.not25, label %.sink.split, label %20

20:                                               ; preds = %17, %4, %2
  %21 = tail call ptr @OSSL_PARAM_locate(ptr noundef %1, ptr noundef nonnull @.str.2) #4
  %.not26 = icmp eq ptr %21, null
  br i1 %.not26, label %26, label %22

22:                                               ; preds = %20
  %23 = getelementptr inbounds nuw i8, ptr %0, i64 16
  %24 = load i64, ptr %23, align 8, !tbaa !3
  %25 = tail call i32 @OSSL_PARAM_set_size_t(ptr noundef nonnull %21, i64 noundef %24) #4
  %.not27 = icmp eq i32 %25, 0
  br i1 %.not27, label %.sink.split, label %26

26:                                               ; preds = %22, %20
  %27 = tail call ptr @OSSL_PARAM_locate(ptr noundef %1, ptr noundef nonnull @.str.3) #4
  %.not28 = icmp eq ptr %27, null
  br i1 %.not28, label %32, label %28

28:                                               ; preds = %26
  %29 = getelementptr inbounds nuw i8, ptr %0, i64 8
  %30 = load i64, ptr %29, align 8, !tbaa !18
  %31 = tail call i32 @OSSL_PARAM_set_size_t(ptr noundef nonnull %27, i64 noundef %30) #4
  %.not29 = icmp eq i32 %31, 0
  br i1 %.not29, label %.sink.split, label %32

.sink.split:                                      ; preds = %28, %22, %8, %12, %17
  %.sink = phi i32 [ 170, %17 ], [ 170, %12 ], [ 170, %8 ], [ 176, %22 ], [ 181, %28 ]
  tail call void @ERR_new() #4
  tail call void @ERR_set_debug(ptr noundef nonnull @.str, i32 noundef %.sink, ptr noundef nonnull @__func__.aes_siv_get_ctx_params) #4
  tail call void (i32, i32, ptr, ...) @ERR_set_error(i32 noundef 57, i32 noundef 104, ptr noundef null) #4
  br label %32

32:                                               ; preds = %.sink.split, %26, %28
  %.0 = phi i32 [ 1, %28 ], [ 1, %26 ], [ 0, %.sink.split ]
  ret i32 %.0
}